target datalayout = "e-m:e-p270:32:32-p271:32:32-p272:64:64-i64:64-i128:128-f80:128-n8:16:32:64-S128"
target triple = "x86_64-unknown-linux-gnu"

%struct.EHCIState = type { %struct.USBBus, ptr, ptr, %struct.MemoryRegion, ptr, %struct.MemoryRegion, %struct.MemoryRegion, %struct.MemoryRegion, i32, i8, i16, i16, i16, i16, i32, [16 x i8], %union.anon.5, [6 x i32], ptr, ptr, i8, i32, i32, [6 x %struct.USBPort], [6 x ptr], i32, i32, %union.EHCIQueueHead, %union.EHCIQueueHead, i32, i32, %struct.USBPacket, %struct.QEMUSGList, i64, i32, i32, i8, ptr }
%struct.USBBus = type { %struct.BusState, ptr, i32, i32, i32, %union.anon, %union.anon.0, %union.anon.1 }
%struct.BusState = type { %struct.Object, ptr, ptr, ptr, i32, i8, i8, i32, %union.BusChildHead, %struct.BusStateEntry, %struct.ResettableState }
%struct.Object = type { ptr, ptr, ptr, i32, ptr }
%union.BusChildHead = type { %struct.QTailQLink }
%struct.QTailQLink = type { ptr, ptr }
%struct.BusStateEntry = type { ptr, ptr }
%struct.ResettableState = type { i32, i8, i8 }
%union.anon = type { %struct.QTailQLink }
%union.anon.0 = type { %struct.QTailQLink }
%union.anon.1 = type { %struct.QTailQLink }
%struct.MemoryRegion = type { %struct.Object, i8, i8, i8, i8, i8, i8, i8, i8, i8, i8, ptr, ptr, ptr, ptr, ptr, ptr, i32, i128, i64, ptr, i64, i8, i8, i8, i8, i8, ptr, i64, i32, %union.anon.2, %union.anon.3, %union.anon.4, ptr, i32, ptr, ptr, i8 }
%union.anon.2 = type { %struct.QTailQLink }
%union.anon.3 = type { %struct.QTailQLink }
%union.anon.4 = type { %struct.QTailQLink }
%union.anon.5 = type { [17 x i32] }
%struct.USBPort = type { ptr, i32, i32, [16 x i8], ptr, ptr, i32, %union.anon.6 }
%union.anon.6 = type { %struct.QTailQLink }
%union.EHCIQueueHead = type { %struct.QTailQLink }
%struct.USBPacket = type { i32, i64, ptr, i32, %struct.QEMUIOVector, i64, i8, i8, i32, i32, i32, ptr, %union.anon.10, %union.anon.11 }
%struct.QEMUIOVector = type { ptr, i32, %union.anon.7 }
%union.anon.7 = type { %struct.anon.8 }
%struct.anon.8 = type { i32, %struct.iovec }
%struct.iovec = type { ptr, i64 }
%union.anon.10 = type { %struct.QTailQLink }
%union.anon.11 = type { %struct.QTailQLink }
%struct.QEMUSGList = type { ptr, i32, i32, i64, ptr, ptr }

@.str.24 = private unnamed_addr constant [26 x i8] c"../qemu/hw/usb/hcd-ehci.c\00", align 1
@__func__.ehci_register_companion = private unnamed_addr constant [24 x i8] c"ehci_register_companion\00", align 1
@.str.90 = private unnamed_addr constant [35 x i8] c"firstport must be between 0 and %u\00", align 1
@.str.91 = private unnamed_addr constant [80 x i8] c"firstport %u asks for ports %u-%u, but port %u has a companion assigned already\00", align 1

; Function Attrs: nounwind sspstrong uwtable
define internal void @ehci_register_companion(ptr noundef %bus, ptr noundef %ports, i32 noundef %portcount, i32 noundef %firstport, ptr noundef %errp) #0 {
entry:
  %bus.addr = alloca ptr, align 8
  %ports.addr = alloca ptr, align 8
  %portcount.addr = alloca i32, align 4
  %firstport.addr = alloca i32, align 4
  %errp.addr = alloca ptr, align 8
  %s = alloca ptr, align 8
  %__mptr = alloca ptr, align 8
  %tmp = alloca ptr, align 8
  %i = alloca i32, align 4
  store ptr %bus, ptr %bus.addr, align 8
  store ptr %ports, ptr %ports.addr, align 8
  store i32 %portcount, ptr %portcount.addr, align 4
  store i32 %firstport, ptr %firstport.addr, align 4
  store ptr %errp, ptr %errp.addr, align 8
  %0 = load ptr, ptr %bus.addr, align 8
  store ptr %0, ptr %__mptr, align 8
  %1 = load ptr, ptr %__mptr, align 8
  %add.ptr = getelementptr i8, ptr %1, i64 0
  store ptr %add.ptr, ptr %tmp, align 8
  %2 = load ptr, ptr %tmp, align 8
  store ptr %2, ptr %s, align 8
  %3 = load i32, ptr %firstport.addr, align 4
  %4 = load i32, ptr %portcount.addr, align 4
  %add = add i32 %3, %4
  %cmp = icmp ugt i32 %add, 6
  br i1 %cmp, label %if.then, label %if.end

if.then:                                          ; preds = %entry
  %5 = load ptr, ptr %errp.addr, align 8
  %6 = load i32, ptr %portcount.addr, align 4
  %sub = sub i32 6, %6
  call void (ptr, ptr, i32, ptr, ptr, ...) @error_setg_internal(ptr noundef %5, ptr noundef @.str.24, i32 noundef 788, ptr noundef @__func__.ehci_register_companion, ptr noundef @.str.90, i32 noundef %sub)
  br label %return

if.end:                                           ; preds = %entry
  store i32 0, ptr %i, align 4
  br label %for.cond

for.cond:                                         ; preds = %for.inc, %if.end
  %7 = load i32, ptr %i, align 4
  %8 = load i32, ptr %portcount.addr, align 4
  %cmp1 = icmp ult i32 %7, %8
  br i1 %cmp1, label %for.body, label %for.end

for.body:                                         ; preds = %for.cond
  %9 = load ptr, ptr %s, align 8
  %companion_ports = getelementptr inbounds %struct.EHCIState, ptr %9, i32 0, i32 24
  %10 = load i32, ptr %firstport.addr, align 4
  %11 = load i32, ptr %i, align 4
  %add2 = add i32 %10, %11
  %idxprom = zext i32 %add2 to i64
  %arrayidx = getelementptr [6 x ptr], ptr %companion_ports, i64 0, i64 %idxprom
  %12 = load ptr, ptr %arrayidx, align 8
  %tobool = icmp ne ptr %12, null
  br i1 %tobool, label %if.then3, label %if.end7

if.then3:                                         ; preds = %for.body
  %13 = load ptr, ptr %errp.addr, align 8
  %14 = load i32, ptr %firstport.addr, align 4
  %15 = load i32, ptr %firstport.addr, align 4
  %16 = load i32, ptr %firstport.addr, align 4
  %17 = load i32, ptr %portcount.addr, align 4
  %add4 = add i32 %16, %17
  %sub5 = sub i32 %add4, 1
  %18 = load i32, ptr %firstport.addr, align 4
  %19 = load i32, ptr %i, align 4
  %add6 = add i32 %18, %19
  call void (ptr, ptr, i32, ptr, ptr, ...) @error_setg_internal(ptr noundef %13, ptr noundef @.str.24, i32 noundef 797, ptr noundef @__func__.ehci_register_companion, ptr noundef @.str.91, i32 noundef %14, i32 noundef %15, i32 noundef %sub5, i32 noundef %add6)
  br label %return

if.end7:                                          ; preds = %for.body
  br label %for.inc

for.inc:                                          ; preds = %if.end7
  %20 = load i32, ptr %i, align 4
  %inc = add i32 %20, 1
  store i32 %inc, ptr %i, align 4
  br label %for.cond, !llvm.loop !16

for.end:                                          ; preds = %for.cond
  store i32 0, ptr %i, align 4
  br label %for.cond8

for.cond8:                                        ; preds = %for.inc24, %for.end
  %21 = load i32, ptr %i, align 4
  %22 = load i32, ptr %portcount.addr, align 4
  %cmp9 = icmp ult i32 %21, %22
  br i1 %cmp9, label %for.body10, label %for.end26

for.body10:                                       ; preds = %for.cond8
  %23 = load ptr, ptr %ports.addr, align 8
  %24 = load i32, ptr %i, align 4
  %idxprom11 = zext i32 %24 to i64
  %arrayidx12 = getelementptr ptr, ptr %23, i64 %idxprom11
  %25 = load ptr, ptr %arrayidx12, align 8
  %26 = load ptr, ptr %s, align 8
  %companion_ports13 = getelementptr inbounds %struct.EHCIState, ptr %26, i32 0, i32 24
  %27 = load i32, ptr %firstport.addr, align 4
  %28 = load i32, ptr %i, align 4
  %add14 = add i32 %27, %28
  %idxprom15 = zext i32 %add14 to i64
  %arrayidx16 = getelementptr [6 x ptr], ptr %companion_ports13, i64 0, i64 %idxprom15
  store ptr %25, ptr %arrayidx16, align 8
  %29 = load ptr, ptr %s, align 8
  %ports17 = getelementptr inbounds %struct.EHCIState, ptr %29, i32 0, i32 23
  %30 = load i32, ptr %firstport.addr, align 4
  %31 = load i32, ptr %i, align 4
  %add18 = add i32 %30, %31
  %idxprom19 = zext i32 %add18 to i64
  %arrayidx20 = getelementptr [6 x %struct.USBPort], ptr %ports17, i64 0, i64 %idxprom19
  %speedmask = getelementptr inbounds %struct.USBPort, ptr %arrayidx20, i32 0, i32 1
  %32 = load i32, ptr %speedmask, align 8
  %or = or i32 %32, 3
  store i32 %or, ptr %speedmask, align 8
  %33 = load ptr, ptr %s, align 8
  %portsc = getelementptr inbounds %struct.EHCIState, ptr %33, i32 0, i32 17
  %34 = load i32, ptr %firstport.addr, align 4
  %35 = load i32, ptr %i, align 4
  %add21 = add i32 %34, %35
  %idxprom22 = zext i32 %add21 to i64
  %arrayidx23 = getelementptr [6 x i32], ptr %portsc, i64 0, i64 %idxprom22
  store i32 8192, ptr %arrayidx23, align 4
  br label %for.inc24

for.inc24:                                        ; preds = %for.body10
  %36 = load i32, ptr %i, align 4
  %inc25 = add i32 %36, 1
  store i32 %inc25, ptr %i, align 4
  br label %for.cond8, !llvm.loop !17

for.end26:                                        ; preds = %for.cond8
  %37 = load ptr, ptr %s, align 8
  %companion_count = getelementptr inbounds %struct.EHCIState, ptr %37, i32 0, i32 8
  %38 = load i32, ptr %companion_count, align 16
  %inc27 = add i32 %38, 1
  store i32 %inc27, ptr %companion_count, align 16
  %39 = load ptr, ptr %s, align 8
  %companion_count28 = getelementptr inbounds %struct.EHCIState, ptr %39, i32 0, i32 8
  %40 = load i32, ptr %companion_count28, align 16
  %shl = shl i32 %40, 4
  %41 = load i32, ptr %portcount.addr, align 4
  %or29 = or i32 %shl, %41
  %conv = trunc i32 %or29 to i8
  %42 = load ptr, ptr %s, align 8
  %caps = getelementptr inbounds %struct.EHCIState, ptr %42, i32 0, i32 15
  %arrayidx30 = getelementptr [16 x i8], ptr %caps, i64 0, i64 5
  store i8 %conv, ptr %arrayidx30, align 1
  br label %return

return:                                           ; preds = %for.end26, %if.then3, %if.then
  ret void
}