; Function Attrs: nounwind sspstrong uwtable
define internal void @ehci_register_companion(ptr noundef captures(none) %bus, ptr noundef readonly captures(none) %ports, i32 noundef %portcount, i32 noundef %firstport, ptr noundef %errp) #0 {
entry:
  %add = add i32 %firstport, %portcount
  %cmp = icmp ugt i32 %add, 6
  br i1 %cmp, label %if.then, label %for.cond.preheader

for.cond.preheader:                               ; preds = %entry
  %cmp130.not = icmp eq i32 %portcount, 0
  br i1 %cmp130.not, label %for.end26, label %for.body.lr.ph

for.body.lr.ph:                                   ; preds = %for.cond.preheader
  %companion_ports = getelementptr inbounds nuw i8, ptr %bus, i64 1904
  %wide.trip.count = zext i32 %portcount to i64
  br label %for.body

if.then:                                          ; preds = %entry
  %sub = sub i32 6, %portcount
  tail call void (ptr, ptr, i32, ptr, ptr, ...) @error_setg_internal(ptr noundef %errp, ptr noundef nonnull @.str.24, i32 noundef 788, ptr noundef nonnull @__func__.ehci_register_companion, ptr noundef nonnull @.str.90, i32 noundef %sub) #17
  br label %return

for.cond:                                         ; preds = %for.body
  %indvars.iv.next = add nuw nsw i64 %indvars.iv, 1
  %exitcond.not = icmp eq i64 %indvars.iv.next, %wide.trip.count
  br i1 %exitcond.not, label %for.body10.lr.ph, label %for.body, !llvm.loop !18

for.body10.lr.ph:                                 ; preds = %for.cond
  %companion_ports13 = getelementptr inbounds nuw i8, ptr %bus, i64 1904
  %0 = getelementptr i8, ptr %bus, i64 1480
  %portsc = getelementptr inbounds nuw i8, ptr %bus, i64 1416
  %wide.trip.count39 = zext i32 %portcount to i64
  br label %for.body10

for.body:                                         ; preds = %for.body.lr.ph, %for.cond
  %indvars.iv = phi i64 [ 0, %for.body.lr.ph ], [ %indvars.iv.next, %for.cond ]
  %1 = trunc nuw i64 %indvars.iv to i32
  %add2 = add i32 %firstport, %1
  %idxprom = zext i32 %add2 to i64
  %arrayidx = getelementptr [6 x ptr], ptr %companion_ports, i64 0, i64 %idxprom
  %2 = load ptr, ptr %arrayidx, align 8
  %tobool.not = icmp eq ptr %2, null
  br i1 %tobool.not, label %for.cond, label %if.then3

if.then3:                                         ; preds = %for.body
  %sub5 = add nsw i32 %add, -1
  tail call void (ptr, ptr, i32, ptr, ptr, ...) @error_setg_internal(ptr noundef %errp, ptr noundef nonnull @.str.24, i32 noundef 797, ptr noundef nonnull @__func__.ehci_register_companion, ptr noundef nonnull @.str.91, i32 noundef %firstport, i32 noundef %firstport, i32 noundef %sub5, i32 noundef %add2) #17
  br label %return

for.body10:                                       ; preds = %for.body10.lr.ph, %for.body10
  %indvars.iv36 = phi i64 [ 0, %for.body10.lr.ph ], [ %indvars.iv.next37, %for.body10 ]
  %arrayidx12 = getelementptr ptr, ptr %ports, i64 %indvars.iv36
  %3 = load ptr, ptr %arrayidx12, align 8
  %4 = trunc nuw i64 %indvars.iv36 to i32
  %add14 = add i32 %firstport, %4
  %idxprom15 = zext i32 %add14 to i64
  %arrayidx16 = getelementptr [6 x ptr], ptr %companion_ports13, i64 0, i64 %idxprom15
  store ptr %3, ptr %arrayidx16, align 8
  %speedmask.idx = mul nuw nsw i64 %idxprom15, 72
  %speedmask = getelementptr i8, ptr %0, i64 %speedmask.idx
  %5 = load i32, ptr %speedmask, align 8
  %or = or i32 %5, 3
  store i32 %or, ptr %speedmask, align 8
  %arrayidx23 = getelementptr [6 x i32], ptr %portsc, i64 0, i64 %idxprom15
  store i32 8192, ptr %arrayidx23, align 4
  %indvars.iv.next37 = add nuw nsw i64 %indvars.iv36, 1
  %exitcond40.not = icmp eq i64 %indvars.iv.next37, %wide.trip.count39
  br i1 %exitcond40.not, label %for.end26, label %for.body10, !llvm.loop !19

for.end26:                                        ; preds = %for.body10, %for.cond.preheader
  %companion_count = getelementptr inbounds nuw i8, ptr %bus, i64 1312
  %6 = load i32, ptr %companion_count, align 16
  %inc27 = add i32 %6, 1
  store i32 %inc27, ptr %companion_count, align 16
  %shl = shl i32 %inc27, 4
  %or29 = or i32 %shl, %portcount
  %conv = trunc i32 %or29 to i8
  %arrayidx30 = getelementptr i8, ptr %bus, i64 1337
  store i8 %conv, ptr %arrayidx30, align 1
  br label %return

return:                                           ; preds = %for.end26, %if.then3, %if.then
  ret void
}